target datalayout = "e-m:e-p270:32:32-p271:32:32-p272:64:64-i64:64-i128:128-f80:128-n8:16:32:64-S128"
target triple = "x86_64-pc-linux-gnu"

%struct.b2Vec2 = type { float, float }
%struct.b2JointSim = type { i32, i32, i32, i32, %struct.b2Vec2, %struct.b2Vec2, float, float, float, float, %union.anon }
%union.anon = type { %struct.b2PrismaticJoint }
%struct.b2PrismaticJoint = type { %struct.b2Vec2, %struct.b2Vec2, float, float, float, float, float, float, float, float, float, float, float, i32, i32, %struct.b2Vec2, %struct.b2Vec2, %struct.b2Vec2, %struct.b2Vec2, float, float, %struct.b2Softness, i8, i8, i8 }
%struct.b2Softness = type { float, float, float }
%struct.b2MouseJoint = type { %struct.b2Vec2, float, float, float, %struct.b2Vec2, float, %struct.b2Softness, %struct.b2Softness, i32, %struct.b2Vec2, %struct.b2Vec2, %struct.b2Mat22 }
%struct.b2Mat22 = type { %struct.b2Vec2, %struct.b2Vec2 }
%struct.b2AtomicInt = type { i32 }
%struct.b2StepContext = type { float, float, float, float, i32, %struct.b2Softness, %struct.b2Softness, %struct.b2Softness, float, float, ptr, ptr, ptr, ptr, ptr, i32, ptr, %struct.b2AtomicInt, ptr, ptr, ptr, i32, i32, ptr, i32, i8, [64 x i8], %struct.b2AtomicU32, [64 x i8] }
%struct.b2AtomicU32 = type { i32 }
%struct.b2Rot = type { float, float }
%struct.b2BodyState = type { %struct.b2Vec2, float, i32, %struct.b2Vec2, %struct.b2Rot }

; Function Attrs: inlinehint nounwind uwtable
define internal float @b2Cross(<2 x float> %0, <2 x float> %1) #5 {
  %3 = alloca %struct.b2Vec2, align 4
  %4 = alloca %struct.b2Vec2, align 4
  store <2 x float> %0, ptr %3, align 4
  store <2 x float> %1, ptr %4, align 4
  %5 = getelementptr inbounds nuw %struct.b2Vec2, ptr %3, i32 0, i32 0
  %6 = load float, ptr %5, align 4, !tbaa !66
  %7 = getelementptr inbounds nuw %struct.b2Vec2, ptr %4, i32 0, i32 1
  %8 = load float, ptr %7, align 4, !tbaa !67
  %9 = fmul float %6, %8
  %10 = getelementptr inbounds nuw %struct.b2Vec2, ptr %3, i32 0, i32 1
  %11 = load float, ptr %10, align 4, !tbaa !67
  %12 = getelementptr inbounds nuw %struct.b2Vec2, ptr %4, i32 0, i32 0
  %13 = load float, ptr %12, align 4, !tbaa !66
  %14 = fmul float %11, %13
  %15 = fsub float %9, %14
  ret float %15
}

; Function Attrs: inlinehint nounwind uwtable
define internal <2 x float> @b2MulAdd(<2 x float> %0, float noundef %1, <2 x float> %2) #5 {
  %4 = alloca %struct.b2Vec2, align 4
  %5 = alloca %struct.b2Vec2, align 4
  %6 = alloca %struct.b2Vec2, align 4
  %7 = alloca float, align 4
  store <2 x float> %0, ptr %5, align 4
  store <2 x float> %2, ptr %6, align 4
  store float %1, ptr %7, align 4, !tbaa !9
  %8 = getelementptr inbounds nuw %struct.b2Vec2, ptr %4, i32 0, i32 0
  %9 = getelementptr inbounds nuw %struct.b2Vec2, ptr %5, i32 0, i32 0
  %10 = load float, ptr %9, align 4, !tbaa !66
  %11 = load float, ptr %7, align 4, !tbaa !9
  %12 = getelementptr inbounds nuw %struct.b2Vec2, ptr %6, i32 0, i32 0
  %13 = load float, ptr %12, align 4, !tbaa !66
  %14 = fmul float %11, %13
  %15 = fadd float %10, %14
  store float %15, ptr %8, align 4, !tbaa !66
  %16 = getelementptr inbounds nuw %struct.b2Vec2, ptr %4, i32 0, i32 1
  %17 = getelementptr inbounds nuw %struct.b2Vec2, ptr %5, i32 0, i32 1
  %18 = load float, ptr %17, align 4, !tbaa !67
  %19 = load float, ptr %7, align 4, !tbaa !9
  %20 = getelementptr inbounds nuw %struct.b2Vec2, ptr %6, i32 0, i32 1
  %21 = load float, ptr %20, align 4, !tbaa !67
  %22 = fmul float %19, %21
  %23 = fadd float %18, %22
  store float %23, ptr %16, align 4, !tbaa !67
  %24 = load <2 x float>, ptr %4, align 4
  ret <2 x float> %24
}

; Function Attrs: inlinehint nounwind uwtable
define internal <2 x float> @b2RotateVector(<2 x float> %0, <2 x float> %1) #5 {
  %3 = alloca %struct.b2Vec2, align 4
  %4 = alloca %struct.b2Rot, align 4
  %5 = alloca %struct.b2Vec2, align 4
  store <2 x float> %0, ptr %4, align 4
  store <2 x float> %1, ptr %5, align 4
  %6 = getelementptr inbounds nuw %struct.b2Vec2, ptr %3, i32 0, i32 0
  %7 = getelementptr inbounds nuw %struct.b2Rot, ptr %4, i32 0, i32 0
  %8 = load float, ptr %7, align 4, !tbaa !120
  %9 = getelementptr inbounds nuw %struct.b2Vec2, ptr %5, i32 0, i32 0
  %10 = load float, ptr %9, align 4, !tbaa !66
  %11 = fmul float %8, %10
  %12 = getelementptr inbounds nuw %struct.b2Rot, ptr %4, i32 0, i32 1
  %13 = load float, ptr %12, align 4, !tbaa !121
  %14 = getelementptr inbounds nuw %struct.b2Vec2, ptr %5, i32 0, i32 1
  %15 = load float, ptr %14, align 4, !tbaa !67
  %16 = fmul float %13, %15
  %17 = fsub float %11, %16
  store float %17, ptr %6, align 4, !tbaa !66
  %18 = getelementptr inbounds nuw %struct.b2Vec2, ptr %3, i32 0, i32 1
  %19 = getelementptr inbounds nuw %struct.b2Rot, ptr %4, i32 0, i32 1
  %20 = load float, ptr %19, align 4, !tbaa !121
  %21 = getelementptr inbounds nuw %struct.b2Vec2, ptr %5, i32 0, i32 0
  %22 = load float, ptr %21, align 4, !tbaa !66
  %23 = fmul float %20, %22
  %24 = getelementptr inbounds nuw %struct.b2Rot, ptr %4, i32 0, i32 0
  %25 = load float, ptr %24, align 4, !tbaa !120
  %26 = getelementptr inbounds nuw %struct.b2Vec2, ptr %5, i32 0, i32 1
  %27 = load float, ptr %26, align 4, !tbaa !67
  %28 = fmul float %25, %27
  %29 = fadd float %23, %28
  store float %29, ptr %18, align 4, !tbaa !67
  %30 = load <2 x float>, ptr %3, align 4
  ret <2 x float> %30
}

; Function Attrs: nounwind uwtable
define hidden void @b2WarmStartMouseJoint(ptr noundef %0, ptr noundef %1) #0 {
  %3 = alloca ptr, align 8
  %4 = alloca ptr, align 8
  %5 = alloca float, align 4
  %6 = alloca float, align 4
  %7 = alloca ptr, align 8
  %8 = alloca ptr, align 8
  %9 = alloca %struct.b2Vec2, align 4
  %10 = alloca float, align 4
  %11 = alloca %struct.b2Rot, align 4
  %12 = alloca %struct.b2Vec2, align 4
  %13 = alloca %struct.b2Vec2, align 4
  store ptr %0, ptr %3, align 8, !tbaa !3
  store ptr %1, ptr %4, align 8, !tbaa !68
  call void @llvm.lifetime.start.p0(i64 4, ptr %5) #8
  %14 = load ptr, ptr %3, align 8, !tbaa !3
  %15 = getelementptr inbounds nuw %struct.b2JointSim, ptr %14, i32 0, i32 7
  %16 = load float, ptr %15, align 4, !tbaa !94
  store float %16, ptr %5, align 4, !tbaa !9
  call void @llvm.lifetime.start.p0(i64 4, ptr %6) #8
  %17 = load ptr, ptr %3, align 8, !tbaa !3
  %18 = getelementptr inbounds nuw %struct.b2JointSim, ptr %17, i32 0, i32 9
  %19 = load float, ptr %18, align 4, !tbaa !96
  store float %19, ptr %6, align 4, !tbaa !9
  call void @llvm.lifetime.start.p0(i64 8, ptr %7) #8
  %20 = load ptr, ptr %3, align 8, !tbaa !3
  %21 = getelementptr inbounds nuw %struct.b2JointSim, ptr %20, i32 0, i32 10
  store ptr %21, ptr %7, align 8, !tbaa !97
  call void @llvm.lifetime.start.p0(i64 8, ptr %8) #8
  %22 = load ptr, ptr %4, align 8, !tbaa !68
  %23 = getelementptr inbounds nuw %struct.b2StepContext, ptr %22, i32 0, i32 12
  %24 = load ptr, ptr %23, align 8, !tbaa !125
  %25 = load ptr, ptr %7, align 8, !tbaa !97
  %26 = getelementptr inbounds nuw %struct.b2MouseJoint, ptr %25, i32 0, i32 8
  %27 = load i32, ptr %26, align 4, !tbaa !99
  %28 = sext i32 %27 to i64
  %29 = getelementptr inbounds %struct.b2BodyState, ptr %24, i64 %28
  store ptr %29, ptr %8, align 8, !tbaa !126
  call void @llvm.lifetime.start.p0(i64 8, ptr %9) #8
  %30 = load ptr, ptr %8, align 8, !tbaa !126
  %31 = getelementptr inbounds nuw %struct.b2BodyState, ptr %30, i32 0, i32 0
  call void @llvm.memcpy.p0.p0.i64(ptr align 4 %9, ptr align 4 %31, i64 8, i1 false), !tbaa.struct !8
  call void @llvm.lifetime.start.p0(i64 4, ptr %10) #8
  %32 = load ptr, ptr %8, align 8, !tbaa !126
  %33 = getelementptr inbounds nuw %struct.b2BodyState, ptr %32, i32 0, i32 1
  %34 = load float, ptr %33, align 4, !tbaa !127
  store float %34, ptr %10, align 4, !tbaa !9
  call void @llvm.lifetime.start.p0(i64 8, ptr %11) #8
  %35 = load ptr, ptr %8, align 8, !tbaa !126
  %36 = getelementptr inbounds nuw %struct.b2BodyState, ptr %35, i32 0, i32 4
  call void @llvm.memcpy.p0.p0.i64(ptr align 4 %11, ptr align 4 %36, i64 8, i1 false), !tbaa.struct !8
  call void @llvm.lifetime.start.p0(i64 8, ptr %12) #8
  %37 = load ptr, ptr %7, align 8, !tbaa !97
  %38 = getelementptr inbounds nuw %struct.b2MouseJoint, ptr %37, i32 0, i32 9
  %39 = load <2 x float>, ptr %11, align 4
  %40 = load <2 x float>, ptr %38, align 4
  %41 = call <2 x float> @b2RotateVector(<2 x float> %39, <2 x float> %40)
  store <2 x float> %41, ptr %12, align 4
  call void @llvm.lifetime.start.p0(i64 8, ptr %13) #8
  %42 = load float, ptr %5, align 4, !tbaa !9
  %43 = load ptr, ptr %7, align 8, !tbaa !97
  %44 = getelementptr inbounds nuw %struct.b2MouseJoint, ptr %43, i32 0, i32 4
  %45 = load <2 x float>, ptr %9, align 4
  %46 = load <2 x float>, ptr %44, align 4
  %47 = call <2 x float> @b2MulAdd(<2 x float> %45, float noundef %42, <2 x float> %46)
  store <2 x float> %47, ptr %13, align 4
  call void @llvm.memcpy.p0.p0.i64(ptr align 4 %9, ptr align 4 %13, i64 8, i1 false), !tbaa.struct !8
  call void @llvm.lifetime.end.p0(i64 8, ptr %13) #8
  %48 = load float, ptr %6, align 4, !tbaa !9
  %49 = load ptr, ptr %7, align 8, !tbaa !97
  %50 = getelementptr inbounds nuw %struct.b2MouseJoint, ptr %49, i32 0, i32 4
  %51 = load <2 x float>, ptr %12, align 4
  %52 = load <2 x float>, ptr %50, align 4
  %53 = call float @b2Cross(<2 x float> %51, <2 x float> %52)
  %54 = load ptr, ptr %7, align 8, !tbaa !97
  %55 = getelementptr inbounds nuw %struct.b2MouseJoint, ptr %54, i32 0, i32 5
  %56 = load float, ptr %55, align 4, !tbaa !114
  %57 = fadd float %53, %56
  %58 = fmul float %48, %57
  %59 = load float, ptr %10, align 4, !tbaa !9
  %60 = fadd float %59, %58
  store float %60, ptr %10, align 4, !tbaa !9
  %61 = load ptr, ptr %8, align 8, !tbaa !126
  %62 = getelementptr inbounds nuw %struct.b2BodyState, ptr %61, i32 0, i32 0
  call void @llvm.memcpy.p0.p0.i64(ptr align 4 %62, ptr align 4 %9, i64 8, i1 false), !tbaa.struct !8
  %63 = load float, ptr %10, align 4, !tbaa !9
  %64 = load ptr, ptr %8, align 8, !tbaa !126
  %65 = getelementptr inbounds nuw %struct.b2BodyState, ptr %64, i32 0, i32 1
  store float %63, ptr %65, align 4, !tbaa !127
  call void @llvm.lifetime.end.p0(i64 8, ptr %12) #8
  call void @llvm.lifetime.end.p0(i64 8, ptr %11) #8
  call void @llvm.lifetime.end.p0(i64 4, ptr %10) #8
  call void @llvm.lifetime.end.p0(i64 8, ptr %9) #8
  call void @llvm.lifetime.end.p0(i64 8, ptr %8) #8
  call void @llvm.lifetime.end.p0(i64 8, ptr %7) #8
  call void @llvm.lifetime.end.p0(i64 4, ptr %6) #8
  call void @llvm.lifetime.end.p0(i64 4, ptr %5) #8
  ret void
}