; Function Attrs: mustprogress nofree norecurse nosync nounwind willreturn memory(readwrite, inaccessiblemem: none) uwtable
define hidden void @b2WarmStartMouseJoint(ptr noundef readonly captures(none) %0, ptr noundef readonly captures(none) %1) local_unnamed_addr #6 {
  %3 = getelementptr inbounds nuw i8, ptr %0, i64 36
  %4 = load float, ptr %3, align 4, !tbaa !85
  %5 = getelementptr inbounds nuw i8, ptr %0, i64 44
  %6 = load float, ptr %5, align 4, !tbaa !87
  %7 = getelementptr inbounds nuw i8, ptr %1, i64 80
  %8 = load ptr, ptr %7, align 8, !tbaa !99
  %9 = getelementptr inbounds nuw i8, ptr %0, i64 104
  %10 = load i32, ptr %9, align 4, !tbaa !88
  %11 = sext i32 %10 to i64
  %12 = getelementptr inbounds %struct.b2BodyState, ptr %8, i64 %11
  %.sroa.04.0.copyload = load <2 x float>, ptr %12, align 4
  %13 = getelementptr inbounds nuw i8, ptr %12, i64 8
  %14 = load float, ptr %13, align 4, !tbaa !100
  %15 = getelementptr inbounds nuw i8, ptr %12, i64 24
  %.sroa.02.0.copyload = load <2 x float>, ptr %15, align 4
  %16 = getelementptr inbounds nuw i8, ptr %0, i64 108
  %17 = load <2 x float>, ptr %16, align 4
  %.sroa.05.0.vec.extract.i = extractelement <2 x float> %.sroa.02.0.copyload, i64 0
  %.sroa.0.0.vec.extract.i = extractelement <2 x float> %17, i64 0
  %18 = fmul <2 x float> %.sroa.02.0.copyload, %17
  %19 = extractelement <2 x float> %18, i64 0
  %.sroa.05.4.vec.extract.i = extractelement <2 x float> %.sroa.02.0.copyload, i64 1
  %.sroa.0.4.vec.extract.i = extractelement <2 x float> %17, i64 1
  %20 = fmul float %.sroa.05.4.vec.extract.i, %.sroa.0.4.vec.extract.i
  %21 = fsub float %19, %20
  %22 = fmul float %.sroa.05.4.vec.extract.i, %.sroa.0.0.vec.extract.i
  %23 = fmul float %.sroa.05.0.vec.extract.i, %.sroa.0.4.vec.extract.i
  %24 = fadd float %22, %23
  %25 = getelementptr inbounds nuw i8, ptr %0, i64 68
  %26 = load <2 x float>, ptr %25, align 4
  %.sroa.02.0.vec.extract.i = extractelement <2 x float> %.sroa.04.0.copyload, i64 0
  %.sroa.0.0.vec.extract.i22 = extractelement <2 x float> %26, i64 0
  %27 = fmul float %4, %.sroa.0.0.vec.extract.i22
  %28 = fadd float %.sroa.02.0.vec.extract.i, %27
  %.sroa.03.0.vec.insert.i = insertelement <2 x float> poison, float %28, i64 0
  %.sroa.02.4.vec.extract.i = extractelement <2 x float> %.sroa.04.0.copyload, i64 1
  %.sroa.0.4.vec.extract.i23 = extractelement <2 x float> %26, i64 1
  %29 = fmul float %4, %.sroa.0.4.vec.extract.i23
  %30 = fadd float %.sroa.02.4.vec.extract.i, %29
  %.sroa.03.4.vec.insert.i = insertelement <2 x float> %.sroa.03.0.vec.insert.i, float %30, i64 1
  %31 = fmul float %.sroa.0.4.vec.extract.i23, %21
  %32 = fmul float %.sroa.0.0.vec.extract.i22, %24
  %33 = fsub float %31, %32
  %34 = getelementptr inbounds nuw i8, ptr %0, i64 76
  %35 = load float, ptr %34, align 4, !tbaa !98
  %36 = fadd float %35, %33
  %37 = fmul float %6, %36
  %38 = fadd float %14, %37
  store <2 x float> %.sroa.03.4.vec.insert.i, ptr %12, align 4
  store float %38, ptr %13, align 4, !tbaa !100
  ret void
}